target datalayout = "e-m:e-p270:32:32-p271:32:32-p272:64:64-i64:64-i128:128-f80:128-n8:16:32:64-S128"
target triple = "x86_64-pc-linux-gnu"

%"class.cv::ParallelLoopBody" = type { ptr }
%"class.cv::Range" = type { i32, i32 }
%"class.cv::ximgproc::GuidedFilterImpl" = type <{ %"class.cv::ximgproc::GuidedFilter", i32, [4 x i8], double, double, i32, i32, i32, i32, %"class.std::vector", %"class.std::vector", %"class.std::vector", %"struct.cv::ximgproc::SymArray2D", i32, [4 x i8] }>
%"class.cv::ximgproc::GuidedFilter" = type { %"class.cv::Algorithm" }
%"class.cv::Algorithm" = type { ptr }
%"class.std::vector" = type { %"struct.std::_Vector_base" }
%"struct.std::_Vector_base" = type { %"struct.std::_Vector_base<cv::Mat, std::allocator<cv::Mat>>::_Vector_impl" }
%"struct.std::_Vector_base<cv::Mat, std::allocator<cv::Mat>>::_Vector_impl" = type { %"struct.std::_Vector_base<cv::Mat, std::allocator<cv::Mat>>::_Vector_impl_data" }
%"struct.std::_Vector_base<cv::Mat, std::allocator<cv::Mat>>::_Vector_impl_data" = type { ptr, ptr, ptr }
%"struct.cv::ximgproc::SymArray2D" = type <{ %"class.std::vector", i32, [4 x i8] }>
%"class.cv::Mat" = type { i32, i32, i32, i32, ptr, ptr, ptr, ptr, ptr, ptr, %"struct.cv::MatSize", %"struct.cv::MatStep" }
%"struct.cv::MatSize" = type { ptr }
%"struct.cv::MatStep" = type { ptr, [2 x i64] }
%"struct.cv::ximgproc::GuidedFilterImpl::ComputeCovGuideFromChannelsMul_ParBody" = type { %"class.cv::ParallelLoopBody", ptr, ptr }

; Function Attrs: inlinehint mustprogress nounwind uwtable
define linkonce_odr void @_ZSt4swapIiENSt9enable_ifIXsr6__and_ISt6__not_ISt15__is_tuple_likeIT_EESt21is_move_constructibleIS3_ESt18is_move_assignableIS3_EEE5valueEvE4typeERS3_SC_(ptr noundef nonnull align 4 dereferenceable(4) %0, ptr noundef nonnull align 4 dereferenceable(4) %1) #7 comdat {
  %3 = alloca ptr, align 8
  %4 = alloca ptr, align 8
  %5 = alloca i32, align 4
  store ptr %0, ptr %3, align 8, !tbaa !40
  store ptr %1, ptr %4, align 8, !tbaa !40
  call void @llvm.lifetime.start.p0(i64 4, ptr %5) #3
  %6 = load ptr, ptr %3, align 8, !tbaa !40
  %7 = load i32, ptr %6, align 4, !tbaa !15
  store i32 %7, ptr %5, align 4, !tbaa !15
  %8 = load ptr, ptr %4, align 8, !tbaa !40
  %9 = load i32, ptr %8, align 4, !tbaa !15
  %10 = load ptr, ptr %3, align 8, !tbaa !40
  store i32 %9, ptr %10, align 4, !tbaa !15
  %11 = load i32, ptr %5, align 4, !tbaa !15
  %12 = load ptr, ptr %4, align 8, !tbaa !40
  store i32 %11, ptr %12, align 4, !tbaa !15
  call void @llvm.lifetime.end.p0(i64 4, ptr %5) #3
  ret void
}

; Function Attrs: inlinehint mustprogress nounwind uwtable
define linkonce_odr hidden noundef nonnull align 8 dereferenceable(96) ptr @_ZN2cv8ximgproc10SymArray2DINS_3MatEEclEii(ptr noundef nonnull align 8 dereferenceable(28) %0, i32 noundef %1, i32 noundef %2) #7 comdat align 2 {
  %4 = alloca ptr, align 8
  %5 = alloca i32, align 4
  %6 = alloca i32, align 4
  store ptr %0, ptr %4, align 8, !tbaa !37
  store i32 %1, ptr %5, align 4, !tbaa !15
  store i32 %2, ptr %6, align 4, !tbaa !15
  %7 = load ptr, ptr %4, align 8
  %8 = load i32, ptr %5, align 4, !tbaa !15
  %9 = load i32, ptr %6, align 4, !tbaa !15
  %10 = icmp slt i32 %8, %9
  br i1 %10, label %11, label %12

11:                                               ; preds = %3
  call void @_ZSt4swapIiENSt9enable_ifIXsr6__and_ISt6__not_ISt15__is_tuple_likeIT_EESt21is_move_constructibleIS3_ESt18is_move_assignableIS3_EEE5valueEvE4typeERS3_SC_(ptr noundef nonnull align 4 dereferenceable(4) %5, ptr noundef nonnull align 4 dereferenceable(4) %6) #3
  br label %12

12:                                               ; preds = %11, %3
  %13 = getelementptr inbounds nuw %"struct.cv::ximgproc::SymArray2D", ptr %7, i32 0, i32 0
  %14 = load i32, ptr %5, align 4, !tbaa !15
  %15 = load i32, ptr %5, align 4, !tbaa !15
  %16 = add nsw i32 %15, 1
  %17 = mul nsw i32 %14, %16
  %18 = sdiv i32 %17, 2
  %19 = load i32, ptr %6, align 4, !tbaa !15
  %20 = add nsw i32 %18, %19
  %21 = sext i32 %20 to i64
  %22 = call noundef nonnull align 8 dereferenceable(96) ptr @_ZNSt6vectorIN2cv3MatESaIS1_EEixEm(ptr noundef nonnull align 8 dereferenceable(24) %13, i64 noundef %21) #3
  ret ptr %22
}

; Function Attrs: inlinehint mustprogress nounwind uwtable
define linkonce_odr hidden noundef ptr @_ZN2cv3Mat3ptrIfEEPT_i(ptr noundef nonnull align 8 dereferenceable(96) %0, i32 noundef %1) #7 comdat align 2 {
  %3 = alloca ptr, align 8
  %4 = alloca i32, align 4
  store ptr %0, ptr %3, align 8, !tbaa !48
  store i32 %1, ptr %4, align 4, !tbaa !15
  %5 = load ptr, ptr %3, align 8
  %6 = getelementptr inbounds nuw %"class.cv::Mat", ptr %5, i32 0, i32 4
  %7 = load ptr, ptr %6, align 8, !tbaa !49
  %8 = getelementptr inbounds nuw %"class.cv::Mat", ptr %5, i32 0, i32 11
  %9 = getelementptr inbounds nuw %"struct.cv::MatStep", ptr %8, i32 0, i32 0
  %10 = load ptr, ptr %9, align 8, !tbaa !57
  %11 = getelementptr inbounds i64, ptr %10, i64 0
  %12 = load i64, ptr %11, align 8, !tbaa !45
  %13 = load i32, ptr %4, align 4, !tbaa !15
  %14 = sext i32 %13 to i64
  %15 = mul i64 %12, %14
  %16 = getelementptr inbounds nuw i8, ptr %7, i64 %15
  ret ptr %16
}

; Function Attrs: mustprogress nounwind uwtable
define linkonce_odr hidden noundef nonnull align 8 dereferenceable(96) ptr @_ZNSt6vectorIN2cv3MatESaIS1_EEixEm(ptr noundef nonnull align 8 dereferenceable(24) %0, i64 noundef %1) #6 comdat align 2 {
  %3 = alloca ptr, align 8
  %4 = alloca i64, align 8
  store ptr %0, ptr %3, align 8, !tbaa !43
  store i64 %1, ptr %4, align 8, !tbaa !45
  %5 = load ptr, ptr %3, align 8
  %6 = getelementptr inbounds nuw %"struct.std::_Vector_base", ptr %5, i32 0, i32 0
  %7 = getelementptr inbounds nuw %"struct.std::_Vector_base<cv::Mat, std::allocator<cv::Mat>>::_Vector_impl_data", ptr %6, i32 0, i32 0
  %8 = load ptr, ptr %7, align 8, !tbaa !47
  %9 = load i64, ptr %4, align 8, !tbaa !45
  %10 = getelementptr inbounds nuw %"class.cv::Mat", ptr %8, i64 %9
  ret ptr %10
}

; Function Attrs: mustprogress nounwind uwtable
define hidden void @_ZN2cv8ximgproc16GuidedFilterImpl14getWalkPatternEiRiS2_(ptr noundef nonnull align 8 dereferenceable(156) %0, i32 noundef %1, ptr noundef nonnull align 4 dereferenceable(4) %2, ptr noundef nonnull align 4 dereferenceable(4) %3) #6 align 2 {
  %5 = alloca ptr, align 8
  %6 = alloca i32, align 4
  %7 = alloca ptr, align 8
  %8 = alloca ptr, align 8
  store ptr %0, ptr %5, align 8, !tbaa !39
  store i32 %1, ptr %6, align 4, !tbaa !15
  store ptr %2, ptr %7, align 8, !tbaa !40
  store ptr %3, ptr %8, align 8, !tbaa !40
  %9 = load ptr, ptr %5, align 8
  %10 = getelementptr inbounds nuw %"class.cv::ximgproc::GuidedFilterImpl", ptr %9, i32 0, i32 13
  %11 = load i32, ptr %10, align 8, !tbaa !42
  %12 = sub nsw i32 %11, 1
  %13 = mul nsw i32 12, %12
  %14 = load i32, ptr %6, align 4, !tbaa !15
  %15 = add nsw i32 %13, %14
  %16 = sext i32 %15 to i64
  %17 = getelementptr inbounds [36 x i32], ptr @_ZZN2cv8ximgproc16GuidedFilterImpl14getWalkPatternEiRiS2_E5wdata, i64 0, i64 %16
  %18 = load i32, ptr %17, align 4, !tbaa !15
  %19 = load ptr, ptr %7, align 8, !tbaa !40
  store i32 %18, ptr %19, align 4, !tbaa !15
  %20 = getelementptr inbounds nuw %"class.cv::ximgproc::GuidedFilterImpl", ptr %9, i32 0, i32 13
  %21 = load i32, ptr %20, align 8, !tbaa !42
  %22 = sub nsw i32 %21, 1
  %23 = mul nsw i32 12, %22
  %24 = add nsw i32 %23, 6
  %25 = load i32, ptr %6, align 4, !tbaa !15
  %26 = add nsw i32 %24, %25
  %27 = sext i32 %26 to i64
  %28 = getelementptr inbounds [36 x i32], ptr @_ZZN2cv8ximgproc16GuidedFilterImpl14getWalkPatternEiRiS2_E5wdata, i64 0, i64 %27
  %29 = load i32, ptr %28, align 4, !tbaa !15
  %30 = load ptr, ptr %8, align 8, !tbaa !40
  store i32 %29, ptr %30, align 4, !tbaa !15
  ret void
}

; Function Attrs: mustprogress nounwind uwtable
define linkonce_odr hidden noundef i32 @_ZNK2cv8ximgproc10SymArray2DINS_3MatEE5totalEv(ptr noundef nonnull align 8 dereferenceable(28) %0) #6 comdat align 2 {
  %2 = alloca ptr, align 8
  store ptr %0, ptr %2, align 8, !tbaa !37
  %3 = load ptr, ptr %2, align 8
  %4 = getelementptr inbounds nuw %"struct.cv::ximgproc::SymArray2D", ptr %3, i32 0, i32 1
  %5 = load i32, ptr %4, align 8, !tbaa !38
  %6 = getelementptr inbounds nuw %"struct.cv::ximgproc::SymArray2D", ptr %3, i32 0, i32 1
  %7 = load i32, ptr %6, align 8, !tbaa !38
  %8 = add nsw i32 %7, 1
  %9 = mul nsw i32 %5, %8
  %10 = sdiv i32 %9, 2
  ret i32 %10
}

; Function Attrs: mustprogress uwtable
define hidden void @_ZNK2cv8ximgproc16GuidedFilterImpl38ComputeCovGuideFromChannelsMul_ParBodyclERKNS_5RangeE(ptr noundef nonnull align 8 dereferenceable(24) %0, ptr noundef nonnull align 4 dereferenceable(8) %1) unnamed_addr #4 align 2 {
  %3 = alloca ptr, align 8
  %4 = alloca ptr, align 8
  %5 = alloca i32, align 4
  %6 = alloca float, align 4
  %7 = alloca i32, align 4
  %8 = alloca i32, align 4
  %9 = alloca i32, align 4
  %10 = alloca i32, align 4
  %11 = alloca ptr, align 8
  %12 = alloca ptr, align 8
  %13 = alloca ptr, align 8
  %14 = alloca i32, align 4
  store ptr %0, ptr %3, align 8, !tbaa !58
  store ptr %1, ptr %4, align 8, !tbaa !8
  %15 = load ptr, ptr %3, align 8
  call void @llvm.lifetime.start.p0(i64 4, ptr %5) #3
  %16 = getelementptr inbounds nuw %"struct.cv::ximgproc::GuidedFilterImpl::ComputeCovGuideFromChannelsMul_ParBody", ptr %15, i32 0, i32 2
  %17 = load ptr, ptr %16, align 8, !tbaa !60
  %18 = call noundef i32 @_ZNK2cv8ximgproc10SymArray2DINS_3MatEE5totalEv(ptr noundef nonnull align 8 dereferenceable(28) %17)
  store i32 %18, ptr %5, align 4, !tbaa !15
  call void @llvm.lifetime.start.p0(i64 4, ptr %6) #3
  %19 = getelementptr inbounds nuw %"struct.cv::ximgproc::GuidedFilterImpl::ComputeCovGuideFromChannelsMul_ParBody", ptr %15, i32 0, i32 1
  %20 = load ptr, ptr %19, align 8, !tbaa !62
  %21 = getelementptr inbounds nuw %"class.cv::ximgproc::GuidedFilterImpl", ptr %20, i32 0, i32 3
  %22 = load double, ptr %21, align 8, !tbaa !63
  %23 = fptrunc double %22 to float
  store float %23, ptr %6, align 4, !tbaa !64
  call void @llvm.lifetime.start.p0(i64 4, ptr %7) #3
  %24 = load ptr, ptr %4, align 8, !tbaa !8
  %25 = getelementptr inbounds nuw %"class.cv::Range", ptr %24, i32 0, i32 0
  %26 = load i32, ptr %25, align 4, !tbaa !17
  store i32 %26, ptr %7, align 4, !tbaa !15
  br label %27

27:                                               ; preds = %93, %2
  %28 = load i32, ptr %7, align 4, !tbaa !15
  %29 = load ptr, ptr %4, align 8, !tbaa !8
  %30 = getelementptr inbounds nuw %"class.cv::Range", ptr %29, i32 0, i32 1
  %31 = load i32, ptr %30, align 4, !tbaa !19
  %32 = icmp slt i32 %28, %31
  br i1 %32, label %34, label %33

33:                                               ; preds = %27
  store i32 2, ptr %8, align 4
  call void @llvm.lifetime.end.p0(i64 4, ptr %7) #3
  br label %96

34:                                               ; preds = %27
  call void @llvm.lifetime.start.p0(i64 4, ptr %9) #3
  call void @llvm.lifetime.start.p0(i64 4, ptr %10) #3
  call void @llvm.lifetime.start.p0(i64 8, ptr %11) #3
  call void @llvm.lifetime.start.p0(i64 8, ptr %12) #3
  call void @llvm.lifetime.start.p0(i64 8, ptr %13) #3
  call void @llvm.lifetime.start.p0(i64 4, ptr %14) #3
  store i32 0, ptr %14, align 4, !tbaa !15
  br label %35

35:                                               ; preds = %89, %34
  %36 = load i32, ptr %14, align 4, !tbaa !15
  %37 = load i32, ptr %5, align 4, !tbaa !15
  %38 = icmp slt i32 %36, %37
  br i1 %38, label %40, label %39

39:                                               ; preds = %35
  store i32 5, ptr %8, align 4
  call void @llvm.lifetime.end.p0(i64 4, ptr %14) #3
  br label %92

40:                                               ; preds = %35
  %41 = getelementptr inbounds nuw %"struct.cv::ximgproc::GuidedFilterImpl::ComputeCovGuideFromChannelsMul_ParBody", ptr %15, i32 0, i32 1
  %42 = load ptr, ptr %41, align 8, !tbaa !62
  %43 = load i32, ptr %14, align 4, !tbaa !15
  call void @_ZN2cv8ximgproc16GuidedFilterImpl14getWalkPatternEiRiS2_(ptr noundef nonnull align 8 dereferenceable(156) %42, i32 noundef %43, ptr noundef nonnull align 4 dereferenceable(4) %9, ptr noundef nonnull align 4 dereferenceable(4) %10)
  %44 = getelementptr inbounds nuw %"struct.cv::ximgproc::GuidedFilterImpl::ComputeCovGuideFromChannelsMul_ParBody", ptr %15, i32 0, i32 1
  %45 = load ptr, ptr %44, align 8, !tbaa !62
  %46 = getelementptr inbounds nuw %"class.cv::ximgproc::GuidedFilterImpl", ptr %45, i32 0, i32 10
  %47 = load i32, ptr %9, align 4, !tbaa !15
  %48 = sext i32 %47 to i64
  %49 = call noundef nonnull align 8 dereferenceable(96) ptr @_ZNSt6vectorIN2cv3MatESaIS1_EEixEm(ptr noundef nonnull align 8 dereferenceable(24) %46, i64 noundef %48) #3
  %50 = load i32, ptr %7, align 4, !tbaa !15
  %51 = call noundef ptr @_ZN2cv3Mat3ptrIfEEPT_i(ptr noundef nonnull align 8 dereferenceable(96) %49, i32 noundef %50)
  store ptr %51, ptr %12, align 8, !tbaa !21
  %52 = getelementptr inbounds nuw %"struct.cv::ximgproc::GuidedFilterImpl::ComputeCovGuideFromChannelsMul_ParBody", ptr %15, i32 0, i32 1
  %53 = load ptr, ptr %52, align 8, !tbaa !62
  %54 = getelementptr inbounds nuw %"class.cv::ximgproc::GuidedFilterImpl", ptr %53, i32 0, i32 10
  %55 = load i32, ptr %10, align 4, !tbaa !15
  %56 = sext i32 %55 to i64
  %57 = call noundef nonnull align 8 dereferenceable(96) ptr @_ZNSt6vectorIN2cv3MatESaIS1_EEixEm(ptr noundef nonnull align 8 dereferenceable(24) %54, i64 noundef %56) #3
  %58 = load i32, ptr %7, align 4, !tbaa !15
  %59 = call noundef ptr @_ZN2cv3Mat3ptrIfEEPT_i(ptr noundef nonnull align 8 dereferenceable(96) %57, i32 noundef %58)
  store ptr %59, ptr %13, align 8, !tbaa !21
  %60 = getelementptr inbounds nuw %"struct.cv::ximgproc::GuidedFilterImpl::ComputeCovGuideFromChannelsMul_ParBody", ptr %15, i32 0, i32 2
  %61 = load ptr, ptr %60, align 8, !tbaa !60
  %62 = load i32, ptr %9, align 4, !tbaa !15
  %63 = load i32, ptr %10, align 4, !tbaa !15
  %64 = call noundef nonnull align 8 dereferenceable(96) ptr @_ZN2cv8ximgproc10SymArray2DINS_3MatEEclEii(ptr noundef nonnull align 8 dereferenceable(28) %61, i32 noundef %62, i32 noundef %63)
  %65 = load i32, ptr %7, align 4, !tbaa !15
  %66 = call noundef ptr @_ZN2cv3Mat3ptrIfEEPT_i(ptr noundef nonnull align 8 dereferenceable(96) %64, i32 noundef %65)
  store ptr %66, ptr %11, align 8, !tbaa !21
  %67 = load i32, ptr %9, align 4, !tbaa !15
  %68 = load i32, ptr %10, align 4, !tbaa !15
  %69 = icmp ne i32 %67, %68
  br i1 %69, label %70, label %78

70:                                               ; preds = %40
  %71 = load ptr, ptr %11, align 8, !tbaa !21
  %72 = load ptr, ptr %12, align 8, !tbaa !21
  %73 = load ptr, ptr %13, align 8, !tbaa !21
  %74 = getelementptr inbounds nuw %"struct.cv::ximgproc::GuidedFilterImpl::ComputeCovGuideFromChannelsMul_ParBody", ptr %15, i32 0, i32 1
  %75 = load ptr, ptr %74, align 8, !tbaa !62
  %76 = getelementptr inbounds nuw %"class.cv::ximgproc::GuidedFilterImpl", ptr %75, i32 0, i32 6
  %77 = load i32, ptr %76, align 4, !tbaa !23
  call void @_ZN2cv8ximgproc10intrinsics7sub_mulEPfS2_S2_i(ptr noundef %71, ptr noundef %72, ptr noundef %73, i32 noundef %77)
  br label %88

78:                                               ; preds = %40
  %79 = load ptr, ptr %11, align 8, !tbaa !21
  %80 = load ptr, ptr %12, align 8, !tbaa !21
  %81 = load ptr, ptr %13, align 8, !tbaa !21
  %82 = load float, ptr %6, align 4, !tbaa !64
  %83 = fneg float %82
  %84 = getelementptr inbounds nuw %"struct.cv::ximgproc::GuidedFilterImpl::ComputeCovGuideFromChannelsMul_ParBody", ptr %15, i32 0, i32 1
  %85 = load ptr, ptr %84, align 8, !tbaa !62
  %86 = getelementptr inbounds nuw %"class.cv::ximgproc::GuidedFilterImpl", ptr %85, i32 0, i32 6
  %87 = load i32, ptr %86, align 4, !tbaa !23
  call void @_ZN2cv8ximgproc10intrinsics7sub_madEPfS2_S2_fi(ptr noundef %79, ptr noundef %80, ptr noundef %81, float noundef %83, i32 noundef %87)
  br label %88

88:                                               ; preds = %78, %70
  br label %89

89:                                               ; preds = %88
  %90 = load i32, ptr %14, align 4, !tbaa !15
  %91 = add nsw i32 %90, 1
  store i32 %91, ptr %14, align 4, !tbaa !15
  br label %35, !llvm.loop !66

92:                                               ; preds = %39
  call void @llvm.lifetime.end.p0(i64 8, ptr %13) #3
  call void @llvm.lifetime.end.p0(i64 8, ptr %12) #3
  call void @llvm.lifetime.end.p0(i64 8, ptr %11) #3
  call void @llvm.lifetime.end.p0(i64 4, ptr %10) #3
  call void @llvm.lifetime.end.p0(i64 4, ptr %9) #3
  br label %93

93:                                               ; preds = %92
  %94 = load i32, ptr %7, align 4, !tbaa !15
  %95 = add nsw i32 %94, 1
  store i32 %95, ptr %7, align 4, !tbaa !15
  br label %27, !llvm.loop !67

96:                                               ; preds = %33
  call void @llvm.lifetime.end.p0(i64 4, ptr %6) #3
  call void @llvm.lifetime.end.p0(i64 4, ptr %5) #3
  ret void
}