; Function Attrs: mustprogress uwtable
define hidden void @_ZNK2cv8ximgproc16GuidedFilterImpl38ComputeCovGuideFromChannelsMul_ParBodyclERKNS_5RangeE(ptr noundef nonnull readonly align 8 captures(none) dereferenceable(24) %0, ptr noundef nonnull readonly align 4 captures(none) dereferenceable(8) %1) unnamed_addr #3 align 2 {
  %3 = getelementptr inbounds nuw i8, ptr %0, i64 16
  %4 = load ptr, ptr %3, align 8, !tbaa !46
  %5 = getelementptr inbounds nuw i8, ptr %4, i64 24
  %6 = load i32, ptr %5, align 8, !tbaa !11
  %7 = add nsw i32 %6, 1
  %8 = mul nsw i32 %7, %6
  %9 = sdiv i32 %8, 2
  %10 = getelementptr inbounds nuw i8, ptr %0, i64 8
  %11 = load i32, ptr %1, align 4, !tbaa !19
  %12 = getelementptr inbounds nuw i8, ptr %1, i64 4
  %13 = load i32, ptr %12, align 4, !tbaa !21
  %14 = icmp slt i32 %11, %13
  br i1 %14, label %.preheader.lr.ph, label %._crit_edge26

.preheader.lr.ph:                                 ; preds = %2
  %15 = load ptr, ptr %10, align 8, !tbaa !48
  %16 = getelementptr inbounds nuw i8, ptr %15, i64 16
  %17 = load double, ptr %16, align 8, !tbaa !49
  %18 = fptrunc double %17 to float
  %19 = icmp sgt i32 %8, 1
  %20 = fneg float %18
  br i1 %19, label %.preheader.us.preheader, label %._crit_edge26

.preheader.us.preheader:                          ; preds = %.preheader.lr.ph
  %21 = sext i32 %11 to i64
  br label %.preheader.us

.preheader.us:                                    ; preds = %.preheader.us.preheader, %._crit_edge.us
  %indvars.iv = phi i64 [ %21, %.preheader.us.preheader ], [ %indvars.iv.next, %._crit_edge.us ]
  br label %22

22:                                               ; preds = %.preheader.us, %76
  %.024.us = phi i32 [ 0, %.preheader.us ], [ %77, %76 ]
  %23 = load ptr, ptr %10, align 8, !tbaa !48
  %24 = getelementptr inbounds nuw i8, ptr %23, i64 152
  %25 = load i32, ptr %24, align 8, !tbaa !23
  %26 = mul i32 %25, 12
  %27 = add nsw i32 %.024.us, -12
  %28 = add i32 %27, %26
  %29 = sext i32 %28 to i64
  %30 = getelementptr inbounds [36 x i32], ptr @_ZZN2cv8ximgproc16GuidedFilterImpl14getWalkPatternEiRiS2_E5wdata, i64 0, i64 %29
  %31 = load i32, ptr %30, align 4, !tbaa !28
  %32 = add nsw i32 %.024.us, -6
  %33 = add i32 %32, %26
  %34 = sext i32 %33 to i64
  %35 = getelementptr inbounds [36 x i32], ptr @_ZZN2cv8ximgproc16GuidedFilterImpl14getWalkPatternEiRiS2_E5wdata, i64 0, i64 %34
  %36 = load i32, ptr %35, align 4, !tbaa !28
  %37 = getelementptr inbounds nuw i8, ptr %23, i64 72
  %38 = sext i32 %31 to i64
  %39 = load ptr, ptr %37, align 8, !tbaa !29
  %40 = getelementptr inbounds nuw %"class.cv::Mat", ptr %39, i64 %38
  %41 = getelementptr inbounds nuw i8, ptr %40, i64 16
  %42 = load ptr, ptr %41, align 8, !tbaa !30
  %43 = getelementptr inbounds nuw i8, ptr %40, i64 72
  %44 = load ptr, ptr %43, align 8, !tbaa !39
  %45 = load i64, ptr %44, align 8, !tbaa !40
  %46 = mul i64 %45, %indvars.iv
  %47 = getelementptr inbounds nuw i8, ptr %42, i64 %46
  %48 = sext i32 %36 to i64
  %49 = getelementptr inbounds nuw %"class.cv::Mat", ptr %39, i64 %48
  %50 = getelementptr inbounds nuw i8, ptr %49, i64 16
  %51 = load ptr, ptr %50, align 8, !tbaa !30
  %52 = getelementptr inbounds nuw i8, ptr %49, i64 72
  %53 = load ptr, ptr %52, align 8, !tbaa !39
  %54 = load i64, ptr %53, align 8, !tbaa !40
  %55 = mul i64 %54, %indvars.iv
  %56 = getelementptr inbounds nuw i8, ptr %51, i64 %55
  %57 = load ptr, ptr %3, align 8, !tbaa !46
  %spec.select.i.us = tail call i32 @llvm.smax.i32(i32 %31, i32 %36)
  %spec.select5.i.us = tail call i32 @llvm.smin.i32(i32 %31, i32 %36)
  %58 = add nsw i32 %spec.select.i.us, 1
  %59 = mul nsw i32 %58, %spec.select.i.us
  %60 = sdiv i32 %59, 2
  %61 = add nsw i32 %60, %spec.select5.i.us
  %62 = sext i32 %61 to i64
  %63 = load ptr, ptr %57, align 8, !tbaa !29
  %64 = getelementptr inbounds nuw %"class.cv::Mat", ptr %63, i64 %62
  %65 = getelementptr inbounds nuw i8, ptr %64, i64 16
  %66 = load ptr, ptr %65, align 8, !tbaa !30
  %67 = getelementptr inbounds nuw i8, ptr %64, i64 72
  %68 = load ptr, ptr %67, align 8, !tbaa !39
  %69 = load i64, ptr %68, align 8, !tbaa !40
  %70 = mul i64 %69, %indvars.iv
  %71 = getelementptr inbounds nuw i8, ptr %66, i64 %70
  %.not.us = icmp eq i32 %31, %36
  %72 = getelementptr inbounds nuw i8, ptr %23, i64 36
  %73 = load i32, ptr %72, align 4, !tbaa !42
  br i1 %.not.us, label %75, label %74

74:                                               ; preds = %22
  tail call void @_ZN2cv8ximgproc10intrinsics7sub_mulEPfS2_S2_i(ptr noundef %71, ptr noundef %47, ptr noundef %56, i32 noundef %73)
  br label %76

75:                                               ; preds = %22
  tail call void @_ZN2cv8ximgproc10intrinsics7sub_madEPfS2_S2_fi(ptr noundef %71, ptr noundef %47, ptr noundef %56, float noundef %20, i32 noundef %73)
  br label %76

76:                                               ; preds = %75, %74
  %77 = add nuw nsw i32 %.024.us, 1
  %exitcond.not = icmp eq i32 %77, %9
  br i1 %exitcond.not, label %._crit_edge.us, label %22, !llvm.loop !50

._crit_edge.us:                                   ; preds = %76
  %indvars.iv.next = add nsw i64 %indvars.iv, 1
  %78 = load i32, ptr %12, align 4, !tbaa !21
  %79 = sext i32 %78 to i64
  %80 = icmp slt i64 %indvars.iv.next, %79
  br i1 %80, label %.preheader.us, label %._crit_edge26, !llvm.loop !51

._crit_edge26:                                    ; preds = %._crit_edge.us, %.preheader.lr.ph, %2
  ret void
}